; Function Attrs: mustprogress nofree norecurse nosync nounwind willreturn memory(argmem: read) uwtable
define noundef zeroext i1 @_ZNK6marisa8grimoire2io6Writer7is_openEv(ptr noundef nonnull readonly align 8 captures(none) dereferenceable(25) %0) local_unnamed_addr #12 align 2 {
  %2 = load ptr, ptr %0, align 8, !tbaa !3
  %.not = icmp eq ptr %2, null
  %3 = getelementptr inbounds nuw i8, ptr %0, i64 8
  %4 = load i32, ptr %3, align 8
  %.not1 = icmp eq i32 %4, -1
  %or.cond = select i1 %.not, i1 %.not1, i1 false
  br i1 %or.cond, label %5, label %9

5:                                                ; preds = %1
  %6 = getelementptr inbounds nuw i8, ptr %0, i64 16
  %7 = load ptr, ptr %6, align 8, !tbaa !13
  %8 = icmp ne ptr %7, null
  br label %9

9:                                                ; preds = %5, %1
  %10 = phi i1 [ true, %1 ], [ %8, %5 ]
  ret i1 %10
}